; Function Attrs: mustprogress uwtable
define void @_ZN8tinyxml210XMLPrinter8PushTextEi(ptr noundef nonnull align 8 dereferenceable(312) initializes((132, 136)) %0, i32 noundef %1) local_unnamed_addr #4 align 2 {
  %3 = alloca [200 x i8], align 16
  call void @llvm.lifetime.start.p0(i64 200, ptr nonnull %3) #31
  %4 = call i32 (ptr, i64, ptr, ...) @snprintf(ptr noundef nonnull dereferenceable(1) %3, i64 noundef 200, ptr noundef nonnull @.str.2, i32 noundef %1) #31
  %5 = getelementptr inbounds nuw i8, ptr %0, i64 128
  %6 = load i32, ptr %5, align 8, !tbaa !164
  %7 = add nsw i32 %6, -1
  %8 = getelementptr inbounds nuw i8, ptr %0, i64 132
  store i32 %7, ptr %8, align 4, !tbaa !165
  %9 = getelementptr inbounds nuw i8, ptr %0, i64 8
  %10 = load i8, ptr %9, align 8, !tbaa !157, !range !94, !noundef !95
  %11 = trunc nuw i8 %10 to i1
  br i1 %11, label %12, label %_ZN8tinyxml210XMLPrinter8PushTextEPKcb.exit

12:                                               ; preds = %2
  store i8 0, ptr %9, align 8, !tbaa !157
  %13 = load ptr, ptr %0, align 8, !tbaa !63
  %14 = getelementptr inbounds nuw i8, ptr %13, i64 120
  %15 = load ptr, ptr %14, align 8
  tail call void %15(ptr noundef nonnull align 8 dereferenceable(312) %0, i8 noundef signext 62)
  br label %_ZN8tinyxml210XMLPrinter8PushTextEPKcb.exit

_ZN8tinyxml210XMLPrinter8PushTextEPKcb.exit:      ; preds = %2, %12
  call void @_ZN8tinyxml210XMLPrinter11PrintStringEPKcb(ptr noundef nonnull align 8 dereferenceable(312) %0, ptr noundef nonnull %3, i1 noundef zeroext true)
  call void @llvm.lifetime.end.p0(i64 200, ptr nonnull %3) #31
  ret void
}